; Function Attrs: mustprogress nofree norecurse nosync nounwind willreturn memory(argmem: read) uwtable
define hidden noundef i32 @_Z24compare_committed_regionRK21CommittedMemoryRegionS1_(ptr nocapture noundef nonnull readonly align 8 dereferenceable(48) %0, ptr nocapture noundef nonnull readonly align 8 dereferenceable(48) %1) local_unnamed_addr #1 {
  %3 = load ptr, ptr %1, align 8
  %4 = getelementptr inbounds i8, ptr %1, i64 8
  %5 = load i64, ptr %4, align 8
  %6 = load ptr, ptr %0, align 8
  %7 = icmp ult ptr %6, %3
  %8 = select i1 %7, ptr %3, ptr %6
  %9 = getelementptr inbounds i8, ptr %3, i64 %5
  %10 = getelementptr inbounds i8, ptr %0, i64 8
  %11 = load i64, ptr %10, align 8
  %12 = getelementptr inbounds i8, ptr %6, i64 %11
  %13 = icmp ult ptr %9, %12
  %14 = select i1 %13, ptr %9, ptr %12
  %15 = icmp ult ptr %8, %14
  %.not.i = icmp ult ptr %6, %9
  %..i = select i1 %.not.i, i32 -1, i32 1
  %.0.i = select i1 %15, i32 0, i32 %..i
  ret i32 %.0.i
}